target datalayout = "e-m:e-p270:32:32-p271:32:32-p272:64:64-i64:64-i128:128-f80:128-n8:16:32:64-S128"
target triple = "x86_64-pc-linux-gnu"

%struct.FT_ListRec_ = type { ptr, ptr }
%struct.FT_FaceRec_ = type { i64, i64, i64, i64, i64, ptr, ptr, i32, ptr, i32, ptr, %struct.FT_Generic_, %struct.FT_BBox_, i16, i16, i16, i16, i16, i16, i16, i16, ptr, ptr, ptr, ptr, ptr, ptr, %struct.FT_ListRec_, %struct.FT_Generic_, ptr, ptr }
%struct.FT_BBox_ = type { i64, i64, i64, i64 }
%struct.FT_Generic_ = type { ptr, ptr }
%struct.TT_FaceRec_ = type { %struct.FT_FaceRec_, %struct.TTC_HeaderRec_, i64, i16, ptr, %struct.TT_Header_, %struct.TT_HoriHeader_, %struct.TT_MaxProfile_, i8, %struct.TT_VertHeader_, i16, %struct.TT_NameTableRec_, %struct.TT_OS2_, %struct.TT_Postscript_, ptr, i64, ptr, ptr, ptr, ptr, ptr, ptr, ptr, ptr, ptr, ptr, ptr, ptr, %struct.TT_Gasp_, %struct.TT_PCLT_, i64, ptr, %struct.TT_Post_NamesRec_, %struct.FT_Palette_Data_, i16, ptr, i8, %struct.FT_Color_, i64, ptr, i64, ptr, i64, ptr, ptr, %struct.FT_Generic_, ptr, i64, i64, i8, i8, ptr, i32, ptr, i32, i32, ptr, i64, i64, i64, ptr, ptr, i64, i32, i64, ptr, ptr, i64, i32, i32, ptr, ptr, i64, i32, i32, i32, %struct.TT_BDFRec_, i64, i64, i64, i64, ptr, ptr, ptr }
%struct.TTC_HeaderRec_ = type { i64, i64, i64, ptr }
%struct.TT_Header_ = type { i64, i64, i64, i64, i16, i16, [2 x i64], [2 x i64], i16, i16, i16, i16, i16, i16, i16, i16, i16 }
%struct.TT_HoriHeader_ = type { i64, i16, i16, i16, i16, i16, i16, i16, i16, i16, i16, [4 x i16], i16, i16, ptr, ptr }
%struct.TT_MaxProfile_ = type { i64, i16, i16, i16, i16, i16, i16, i16, i16, i16, i16, i16, i16, i16, i16 }
%struct.TT_VertHeader_ = type { i64, i16, i16, i16, i16, i16, i16, i16, i16, i16, i16, [4 x i16], i16, i16, ptr, ptr }
%struct.TT_NameTableRec_ = type { i16, i32, i32, ptr, i32, ptr, ptr }
%struct.TT_OS2_ = type { i16, i16, i16, i16, i16, i16, i16, i16, i16, i16, i16, i16, i16, i16, i16, i16, [10 x i8], i64, i64, i64, i64, [4 x i8], i16, i16, i16, i16, i16, i16, i16, i16, i64, i64, i16, i16, i16, i16, i16, i16, i16 }
%struct.TT_Postscript_ = type { i64, i64, i16, i16, i64, i64, i64, i64, i64 }
%struct.TT_Gasp_ = type { i16, i16, ptr }
%struct.TT_PCLT_ = type { i64, i64, i16, i16, i16, i16, i16, i16, [16 x i8], [8 x i8], [6 x i8], i8, i8, i8, i8 }
%struct.TT_Post_NamesRec_ = type { i8, i16, i16, ptr, ptr }
%struct.FT_Palette_Data_ = type { i16, ptr, ptr, i16, ptr }
%struct.FT_Color_ = type { i8, i8, i8, i8 }
%struct.TT_BDFRec_ = type { ptr, ptr, ptr, i64, i32, i8 }

; Function Attrs: nounwind uwtable
define internal i64 @tt_face_get_location(ptr noundef %0, i32 noundef %1, ptr noundef %2) #0 {
  %4 = alloca i64, align 8
  %5 = alloca ptr, align 8
  %6 = alloca i32, align 4
  %7 = alloca ptr, align 8
  %8 = alloca ptr, align 8
  %9 = alloca i64, align 8
  %10 = alloca i64, align 8
  %11 = alloca ptr, align 8
  %12 = alloca ptr, align 8
  store ptr %0, ptr %5, align 8
  store i32 %1, ptr %6, align 4
  store ptr %2, ptr %7, align 8
  %13 = load ptr, ptr %5, align 8
  store ptr %13, ptr %8, align 8
  store i64 0, ptr %10, align 8
  store i64 0, ptr %9, align 8
  %14 = load i32, ptr %6, align 4
  %15 = zext i32 %14 to i64
  %16 = load ptr, ptr %8, align 8
  %17 = getelementptr inbounds %struct.TT_FaceRec_, ptr %16, i32 0, i32 59
  %18 = load i64, ptr %17, align 8
  %19 = icmp ult i64 %15, %18
  br i1 %19, label %20, label %176

20:                                               ; preds = %3
  %21 = load ptr, ptr %8, align 8
  %22 = getelementptr inbounds %struct.TT_FaceRec_, ptr %21, i32 0, i32 5
  %23 = getelementptr inbounds %struct.TT_Header_, ptr %22, i32 0, i32 15
  %24 = load i16, ptr %23, align 2
  %25 = sext i16 %24 to i32
  %26 = icmp ne i32 %25, 0
  br i1 %26, label %27, label %110

27:                                               ; preds = %20
  %28 = load ptr, ptr %8, align 8
  %29 = getelementptr inbounds %struct.TT_FaceRec_, ptr %28, i32 0, i32 60
  %30 = load ptr, ptr %29, align 8
  %31 = load i32, ptr %6, align 4
  %32 = mul i32 %31, 4
  %33 = zext i32 %32 to i64
  %34 = getelementptr inbounds i8, ptr %30, i64 %33
  store ptr %34, ptr %11, align 8
  %35 = load ptr, ptr %8, align 8
  %36 = getelementptr inbounds %struct.TT_FaceRec_, ptr %35, i32 0, i32 60
  %37 = load ptr, ptr %36, align 8
  %38 = load ptr, ptr %8, align 8
  %39 = getelementptr inbounds %struct.TT_FaceRec_, ptr %38, i32 0, i32 59
  %40 = load i64, ptr %39, align 8
  %41 = mul i64 %40, 4
  %42 = getelementptr inbounds i8, ptr %37, i64 %41
  store ptr %42, ptr %12, align 8
  %43 = load ptr, ptr %11, align 8
  %44 = getelementptr inbounds i8, ptr %43, i64 4
  store ptr %44, ptr %11, align 8
  %45 = load ptr, ptr %11, align 8
  %46 = getelementptr inbounds i8, ptr %45, i64 -4
  %47 = getelementptr inbounds i8, ptr %46, i64 0
  %48 = load i8, ptr %47, align 1
  %49 = zext i8 %48 to i32
  %50 = shl i32 %49, 24
  %51 = load ptr, ptr %11, align 8
  %52 = getelementptr inbounds i8, ptr %51, i64 -4
  %53 = getelementptr inbounds i8, ptr %52, i64 1
  %54 = load i8, ptr %53, align 1
  %55 = zext i8 %54 to i32
  %56 = shl i32 %55, 16
  %57 = or i32 %50, %56
  %58 = load ptr, ptr %11, align 8
  %59 = getelementptr inbounds i8, ptr %58, i64 -4
  %60 = getelementptr inbounds i8, ptr %59, i64 2
  %61 = load i8, ptr %60, align 1
  %62 = zext i8 %61 to i32
  %63 = shl i32 %62, 8
  %64 = or i32 %57, %63
  %65 = load ptr, ptr %11, align 8
  %66 = getelementptr inbounds i8, ptr %65, i64 -4
  %67 = getelementptr inbounds i8, ptr %66, i64 3
  %68 = load i8, ptr %67, align 1
  %69 = zext i8 %68 to i32
  %70 = shl i32 %69, 0
  %71 = or i32 %64, %70
  %72 = zext i32 %71 to i64
  store i64 %72, ptr %9, align 8
  %73 = load i64, ptr %9, align 8
  store i64 %73, ptr %10, align 8
  %74 = load ptr, ptr %11, align 8
  %75 = getelementptr inbounds i8, ptr %74, i64 4
  %76 = load ptr, ptr %12, align 8
  %77 = icmp ule ptr %75, %76
  br i1 %77, label %78, label %109

78:                                               ; preds = %27
  %79 = load ptr, ptr %11, align 8
  %80 = getelementptr inbounds i8, ptr %79, i64 4
  store ptr %80, ptr %11, align 8
  %81 = load ptr, ptr %11, align 8
  %82 = getelementptr inbounds i8, ptr %81, i64 -4
  %83 = getelementptr inbounds i8, ptr %82, i64 0
  %84 = load i8, ptr %83, align 1
  %85 = zext i8 %84 to i32
  %86 = shl i32 %85, 24
  %87 = load ptr, ptr %11, align 8
  %88 = getelementptr inbounds i8, ptr %87, i64 -4
  %89 = getelementptr inbounds i8, ptr %88, i64 1
  %90 = load i8, ptr %89, align 1
  %91 = zext i8 %90 to i32
  %92 = shl i32 %91, 16
  %93 = or i32 %86, %92
  %94 = load ptr, ptr %11, align 8
  %95 = getelementptr inbounds i8, ptr %94, i64 -4
  %96 = getelementptr inbounds i8, ptr %95, i64 2
  %97 = load i8, ptr %96, align 1
  %98 = zext i8 %97 to i32
  %99 = shl i32 %98, 8
  %100 = or i32 %93, %99
  %101 = load ptr, ptr %11, align 8
  %102 = getelementptr inbounds i8, ptr %101, i64 -4
  %103 = getelementptr inbounds i8, ptr %102, i64 3
  %104 = load i8, ptr %103, align 1
  %105 = zext i8 %104 to i32
  %106 = shl i32 %105, 0
  %107 = or i32 %100, %106
  %108 = zext i32 %107 to i64
  store i64 %108, ptr %10, align 8
  br label %109

109:                                              ; preds = %78, %27
  br label %175

110:                                              ; preds = %20
  %111 = load ptr, ptr %8, align 8
  %112 = getelementptr inbounds %struct.TT_FaceRec_, ptr %111, i32 0, i32 60
  %113 = load ptr, ptr %112, align 8
  %114 = load i32, ptr %6, align 4
  %115 = mul i32 %114, 2
  %116 = zext i32 %115 to i64
  %117 = getelementptr inbounds i8, ptr %113, i64 %116
  store ptr %117, ptr %11, align 8
  %118 = load ptr, ptr %8, align 8
  %119 = getelementptr inbounds %struct.TT_FaceRec_, ptr %118, i32 0, i32 60
  %120 = load ptr, ptr %119, align 8
  %121 = load ptr, ptr %8, align 8
  %122 = getelementptr inbounds %struct.TT_FaceRec_, ptr %121, i32 0, i32 59
  %123 = load i64, ptr %122, align 8
  %124 = mul i64 %123, 2
  %125 = getelementptr inbounds i8, ptr %120, i64 %124
  store ptr %125, ptr %12, align 8
  %126 = load ptr, ptr %11, align 8
  %127 = getelementptr inbounds i8, ptr %126, i64 2
  store ptr %127, ptr %11, align 8
  %128 = load ptr, ptr %11, align 8
  %129 = getelementptr inbounds i8, ptr %128, i64 -2
  %130 = getelementptr inbounds i8, ptr %129, i64 0
  %131 = load i8, ptr %130, align 1
  %132 = zext i8 %131 to i16
  %133 = zext i16 %132 to i32
  %134 = shl i32 %133, 8
  %135 = load ptr, ptr %11, align 8
  %136 = getelementptr inbounds i8, ptr %135, i64 -2
  %137 = getelementptr inbounds i8, ptr %136, i64 1
  %138 = load i8, ptr %137, align 1
  %139 = zext i8 %138 to i16
  %140 = zext i16 %139 to i32
  %141 = shl i32 %140, 0
  %142 = or i32 %134, %141
  %143 = trunc i32 %142 to i16
  %144 = zext i16 %143 to i64
  store i64 %144, ptr %9, align 8
  %145 = load i64, ptr %9, align 8
  store i64 %145, ptr %10, align 8
  %146 = load ptr, ptr %11, align 8
  %147 = getelementptr inbounds i8, ptr %146, i64 2
  %148 = load ptr, ptr %12, align 8
  %149 = icmp ule ptr %147, %148
  br i1 %149, label %150, label %170

150:                                              ; preds = %110
  %151 = load ptr, ptr %11, align 8
  %152 = getelementptr inbounds i8, ptr %151, i64 2
  store ptr %152, ptr %11, align 8
  %153 = load ptr, ptr %11, align 8
  %154 = getelementptr inbounds i8, ptr %153, i64 -2
  %155 = getelementptr inbounds i8, ptr %154, i64 0
  %156 = load i8, ptr %155, align 1
  %157 = zext i8 %156 to i16
  %158 = zext i16 %157 to i32
  %159 = shl i32 %158, 8
  %160 = load ptr, ptr %11, align 8
  %161 = getelementptr inbounds i8, ptr %160, i64 -2
  %162 = getelementptr inbounds i8, ptr %161, i64 1
  %163 = load i8, ptr %162, align 1
  %164 = zext i8 %163 to i16
  %165 = zext i16 %164 to i32
  %166 = shl i32 %165, 0
  %167 = or i32 %159, %166
  %168 = trunc i32 %167 to i16
  %169 = zext i16 %168 to i64
  store i64 %169, ptr %10, align 8
  br label %170

170:                                              ; preds = %150, %110
  %171 = load i64, ptr %9, align 8
  %172 = shl i64 %171, 1
  store i64 %172, ptr %9, align 8
  %173 = load i64, ptr %10, align 8
  %174 = shl i64 %173, 1
  store i64 %174, ptr %10, align 8
  br label %175

175:                                              ; preds = %170, %109
  br label %176

176:                                              ; preds = %175, %3
  %177 = load i64, ptr %9, align 8
  %178 = load ptr, ptr %8, align 8
  %179 = getelementptr inbounds %struct.TT_FaceRec_, ptr %178, i32 0, i32 47
  %180 = load i64, ptr %179, align 8
  %181 = icmp ugt i64 %177, %180
  br i1 %181, label %182, label %188

182:                                              ; preds = %176
  br label %183

183:                                              ; preds = %182
  br label %184

184:                                              ; preds = %183
  br label %185

185:                                              ; preds = %184
  br label %186

186:                                              ; preds = %185
  %187 = load ptr, ptr %7, align 8
  store i64 0, ptr %187, align 8
  store i64 0, ptr %4, align 8
  br label %235

188:                                              ; preds = %176
  %189 = load i64, ptr %10, align 8
  %190 = load ptr, ptr %8, align 8
  %191 = getelementptr inbounds %struct.TT_FaceRec_, ptr %190, i32 0, i32 47
  %192 = load i64, ptr %191, align 8
  %193 = icmp ugt i64 %189, %192
  br i1 %193, label %194, label %217

194:                                              ; preds = %188
  %195 = load i32, ptr %6, align 4
  %196 = zext i32 %195 to i64
  %197 = load ptr, ptr %8, align 8
  %198 = getelementptr inbounds %struct.TT_FaceRec_, ptr %197, i32 0, i32 59
  %199 = load i64, ptr %198, align 8
  %200 = sub i64 %199, 2
  %201 = icmp eq i64 %196, %200
  br i1 %201, label %202, label %210

202:                                              ; preds = %194
  br label %203

203:                                              ; preds = %202
  br label %204

204:                                              ; preds = %203
  br label %205

205:                                              ; preds = %204
  br label %206

206:                                              ; preds = %205
  %207 = load ptr, ptr %8, align 8
  %208 = getelementptr inbounds %struct.TT_FaceRec_, ptr %207, i32 0, i32 47
  %209 = load i64, ptr %208, align 8
  store i64 %209, ptr %10, align 8
  br label %216

210:                                              ; preds = %194
  br label %211

211:                                              ; preds = %210
  br label %212

212:                                              ; preds = %211
  br label %213

213:                                              ; preds = %212
  br label %214

214:                                              ; preds = %213
  %215 = load ptr, ptr %7, align 8
  store i64 0, ptr %215, align 8
  store i64 0, ptr %4, align 8
  br label %235

216:                                              ; preds = %206
  br label %217

217:                                              ; preds = %216, %188
  %218 = load i64, ptr %10, align 8
  %219 = load i64, ptr %9, align 8
  %220 = icmp uge i64 %218, %219
  br i1 %220, label %221, label %226

221:                                              ; preds = %217
  %222 = load i64, ptr %10, align 8
  %223 = load i64, ptr %9, align 8
  %224 = sub i64 %222, %223
  %225 = load ptr, ptr %7, align 8
  store i64 %224, ptr %225, align 8
  br label %233

226:                                              ; preds = %217
  %227 = load ptr, ptr %8, align 8
  %228 = getelementptr inbounds %struct.TT_FaceRec_, ptr %227, i32 0, i32 47
  %229 = load i64, ptr %228, align 8
  %230 = load i64, ptr %9, align 8
  %231 = sub i64 %229, %230
  %232 = load ptr, ptr %7, align 8
  store i64 %231, ptr %232, align 8
  br label %233

233:                                              ; preds = %226, %221
  %234 = load i64, ptr %9, align 8
  store i64 %234, ptr %4, align 8
  br label %235

235:                                              ; preds = %233, %214, %186
  %236 = load i64, ptr %4, align 8
  ret i64 %236
}