; Function Attrs: mustprogress nofree norecurse nosync nounwind willreturn memory(read, argmem: readwrite, inaccessiblemem: none) uwtable
define internal range(i64 0, 4294967296) i64 @tt_face_get_location(ptr nocapture noundef readonly %0, i32 noundef %1, ptr nocapture noundef writeonly %2) #8 {
  %4 = zext i32 %1 to i64
  %5 = getelementptr inbounds i8, ptr %0, i64 1272
  %6 = load i64, ptr %5, align 8
  %7 = icmp ugt i64 %6, %4
  br i1 %7, label %8, label %.thread71

8:                                                ; preds = %3
  %9 = getelementptr inbounds i8, ptr %0, i64 390
  %10 = load i16, ptr %9, align 2
  %.not = icmp eq i16 %10, 0
  %11 = getelementptr inbounds i8, ptr %0, i64 1280
  %12 = load ptr, ptr %11, align 8
  br i1 %.not, label %56, label %13

13:                                               ; preds = %8
  %14 = shl i32 %1, 2
  %15 = zext i32 %14 to i64
  %16 = getelementptr inbounds i8, ptr %12, i64 %15
  %17 = shl i64 %6, 2
  %18 = getelementptr inbounds i8, ptr %12, i64 %17
  %19 = load i8, ptr %16, align 1
  %20 = zext i8 %19 to i64
  %21 = shl nuw nsw i64 %20, 24
  %22 = getelementptr inbounds i8, ptr %16, i64 1
  %23 = load i8, ptr %22, align 1
  %24 = zext i8 %23 to i64
  %25 = shl nuw nsw i64 %24, 16
  %26 = or disjoint i64 %25, %21
  %27 = getelementptr inbounds i8, ptr %16, i64 2
  %28 = load i8, ptr %27, align 1
  %29 = zext i8 %28 to i64
  %30 = shl nuw nsw i64 %29, 8
  %31 = or disjoint i64 %26, %30
  %32 = getelementptr inbounds i8, ptr %16, i64 3
  %33 = load i8, ptr %32, align 1
  %34 = zext i8 %33 to i64
  %35 = or disjoint i64 %31, %34
  %36 = getelementptr inbounds i8, ptr %16, i64 8
  %.not61 = icmp ugt ptr %36, %18
  br i1 %.not61, label %82, label %37

37:                                               ; preds = %13
  %38 = getelementptr inbounds i8, ptr %16, i64 4
  %39 = load i8, ptr %38, align 1
  %40 = zext i8 %39 to i64
  %41 = shl nuw nsw i64 %40, 24
  %42 = getelementptr inbounds i8, ptr %16, i64 5
  %43 = load i8, ptr %42, align 1
  %44 = zext i8 %43 to i64
  %45 = shl nuw nsw i64 %44, 16
  %46 = or disjoint i64 %45, %41
  %47 = getelementptr inbounds i8, ptr %16, i64 6
  %48 = load i8, ptr %47, align 1
  %49 = zext i8 %48 to i64
  %50 = shl nuw nsw i64 %49, 8
  %51 = or disjoint i64 %46, %50
  %52 = getelementptr inbounds i8, ptr %16, i64 7
  %53 = load i8, ptr %52, align 1
  %54 = zext i8 %53 to i64
  %55 = or disjoint i64 %51, %54
  br label %82

56:                                               ; preds = %8
  %57 = shl i32 %1, 1
  %58 = zext i32 %57 to i64
  %59 = getelementptr inbounds i8, ptr %12, i64 %58
  %60 = shl i64 %6, 1
  %61 = getelementptr inbounds i8, ptr %12, i64 %60
  %62 = load i8, ptr %59, align 1
  %63 = zext i8 %62 to i64
  %64 = shl nuw nsw i64 %63, 8
  %65 = getelementptr inbounds i8, ptr %59, i64 1
  %66 = load i8, ptr %65, align 1
  %67 = zext i8 %66 to i64
  %68 = or disjoint i64 %64, %67
  %69 = getelementptr inbounds i8, ptr %59, i64 4
  %.not60 = icmp ugt ptr %69, %61
  br i1 %.not60, label %79, label %70

70:                                               ; preds = %56
  %71 = getelementptr inbounds i8, ptr %59, i64 2
  %72 = load i8, ptr %71, align 1
  %73 = zext i8 %72 to i64
  %74 = shl nuw nsw i64 %73, 8
  %75 = getelementptr inbounds i8, ptr %59, i64 3
  %76 = load i8, ptr %75, align 1
  %77 = zext i8 %76 to i64
  %78 = or disjoint i64 %74, %77
  br label %79

79:                                               ; preds = %70, %56
  %.0 = phi i64 [ %78, %70 ], [ %68, %56 ]
  %80 = shl nuw nsw i64 %68, 1
  %81 = shl nuw nsw i64 %.0, 1
  br label %82

82:                                               ; preds = %79, %37, %13
  %.054 = phi i64 [ %35, %37 ], [ %35, %13 ], [ %80, %79 ]
  %.1 = phi i64 [ %55, %37 ], [ %35, %13 ], [ %81, %79 ]
  %83 = getelementptr inbounds i8, ptr %0, i64 1192
  %84 = load i64, ptr %83, align 8
  %85 = icmp ugt i64 %.054, %84
  br i1 %85, label %92, label %86

86:                                               ; preds = %82
  %87 = icmp ugt i64 %.1, %84
  br i1 %87, label %88, label %91

88:                                               ; preds = %86
  %89 = add i64 %6, -2
  %90 = icmp eq i64 %89, %4
  br i1 %90, label %91, label %92

91:                                               ; preds = %88, %86
  %.2 = phi i64 [ %.1, %86 ], [ %84, %88 ]
  %.not62 = icmp ult i64 %.2, %.054
  %spec.select = select i1 %.not62, i64 %84, i64 %.2
  br label %.thread71

.thread71:                                        ; preds = %91, %3
  %.054657075 = phi i64 [ 0, %3 ], [ %.054, %91 ]
  %.pn = phi i64 [ 0, %3 ], [ %spec.select, %91 ]
  %storemerge = sub i64 %.pn, %.054657075
  br label %92

92:                                               ; preds = %88, %82, %.thread71
  %storemerge.sink = phi i64 [ %storemerge, %.thread71 ], [ 0, %82 ], [ 0, %88 ]
  %.055 = phi i64 [ %.054657075, %.thread71 ], [ 0, %82 ], [ 0, %88 ]
  store i64 %storemerge.sink, ptr %2, align 8
  ret i64 %.055
}